target datalayout = "e-m:e-p270:32:32-p271:32:32-p272:64:64-i64:64-i128:128-f80:128-n8:16:32:64-S128"
target triple = "x86_64-pc-linux-gnu"

; Function Attrs: nounwind uwtable
define internal void @diff_pixels_c(ptr noalias noundef %0, ptr noundef %1, ptr noundef %2, i64 noundef %3) #2 {
  %5 = alloca ptr, align 8
  %6 = alloca ptr, align 8
  %7 = alloca ptr, align 8
  %8 = alloca i64, align 8
  %9 = alloca i32, align 4
  store ptr %0, ptr %5, align 8, !tbaa !38
  store ptr %1, ptr %6, align 8, !tbaa !39
  store ptr %2, ptr %7, align 8, !tbaa !39
  store i64 %3, ptr %8, align 8, !tbaa !40
  call void @llvm.lifetime.start.p0(i64 4, ptr %9) #3
  store i32 0, ptr %9, align 4, !tbaa !31
  br label %10

10:                                               ; preds = %118, %4
  %11 = load i32, ptr %9, align 4, !tbaa !31
  %12 = icmp slt i32 %11, 8
  br i1 %12, label %13, label %121

13:                                               ; preds = %10
  %14 = load ptr, ptr %6, align 8, !tbaa !39
  %15 = getelementptr inbounds i8, ptr %14, i64 0
  %16 = load i8, ptr %15, align 1, !tbaa !41
  %17 = zext i8 %16 to i32
  %18 = load ptr, ptr %7, align 8, !tbaa !39
  %19 = getelementptr inbounds i8, ptr %18, i64 0
  %20 = load i8, ptr %19, align 1, !tbaa !41
  %21 = zext i8 %20 to i32
  %22 = sub nsw i32 %17, %21
  %23 = trunc i32 %22 to i16
  %24 = load ptr, ptr %5, align 8, !tbaa !38
  %25 = getelementptr inbounds i16, ptr %24, i64 0
  store i16 %23, ptr %25, align 2, !tbaa !42
  %26 = load ptr, ptr %6, align 8, !tbaa !39
  %27 = getelementptr inbounds i8, ptr %26, i64 1
  %28 = load i8, ptr %27, align 1, !tbaa !41
  %29 = zext i8 %28 to i32
  %30 = load ptr, ptr %7, align 8, !tbaa !39
  %31 = getelementptr inbounds i8, ptr %30, i64 1
  %32 = load i8, ptr %31, align 1, !tbaa !41
  %33 = zext i8 %32 to i32
  %34 = sub nsw i32 %29, %33
  %35 = trunc i32 %34 to i16
  %36 = load ptr, ptr %5, align 8, !tbaa !38
  %37 = getelementptr inbounds i16, ptr %36, i64 1
  store i16 %35, ptr %37, align 2, !tbaa !42
  %38 = load ptr, ptr %6, align 8, !tbaa !39
  %39 = getelementptr inbounds i8, ptr %38, i64 2
  %40 = load i8, ptr %39, align 1, !tbaa !41
  %41 = zext i8 %40 to i32
  %42 = load ptr, ptr %7, align 8, !tbaa !39
  %43 = getelementptr inbounds i8, ptr %42, i64 2
  %44 = load i8, ptr %43, align 1, !tbaa !41
  %45 = zext i8 %44 to i32
  %46 = sub nsw i32 %41, %45
  %47 = trunc i32 %46 to i16
  %48 = load ptr, ptr %5, align 8, !tbaa !38
  %49 = getelementptr inbounds i16, ptr %48, i64 2
  store i16 %47, ptr %49, align 2, !tbaa !42
  %50 = load ptr, ptr %6, align 8, !tbaa !39
  %51 = getelementptr inbounds i8, ptr %50, i64 3
  %52 = load i8, ptr %51, align 1, !tbaa !41
  %53 = zext i8 %52 to i32
  %54 = load ptr, ptr %7, align 8, !tbaa !39
  %55 = getelementptr inbounds i8, ptr %54, i64 3
  %56 = load i8, ptr %55, align 1, !tbaa !41
  %57 = zext i8 %56 to i32
  %58 = sub nsw i32 %53, %57
  %59 = trunc i32 %58 to i16
  %60 = load ptr, ptr %5, align 8, !tbaa !38
  %61 = getelementptr inbounds i16, ptr %60, i64 3
  store i16 %59, ptr %61, align 2, !tbaa !42
  %62 = load ptr, ptr %6, align 8, !tbaa !39
  %63 = getelementptr inbounds i8, ptr %62, i64 4
  %64 = load i8, ptr %63, align 1, !tbaa !41
  %65 = zext i8 %64 to i32
  %66 = load ptr, ptr %7, align 8, !tbaa !39
  %67 = getelementptr inbounds i8, ptr %66, i64 4
  %68 = load i8, ptr %67, align 1, !tbaa !41
  %69 = zext i8 %68 to i32
  %70 = sub nsw i32 %65, %69
  %71 = trunc i32 %70 to i16
  %72 = load ptr, ptr %5, align 8, !tbaa !38
  %73 = getelementptr inbounds i16, ptr %72, i64 4
  store i16 %71, ptr %73, align 2, !tbaa !42
  %74 = load ptr, ptr %6, align 8, !tbaa !39
  %75 = getelementptr inbounds i8, ptr %74, i64 5
  %76 = load i8, ptr %75, align 1, !tbaa !41
  %77 = zext i8 %76 to i32
  %78 = load ptr, ptr %7, align 8, !tbaa !39
  %79 = getelementptr inbounds i8, ptr %78, i64 5
  %80 = load i8, ptr %79, align 1, !tbaa !41
  %81 = zext i8 %80 to i32
  %82 = sub nsw i32 %77, %81
  %83 = trunc i32 %82 to i16
  %84 = load ptr, ptr %5, align 8, !tbaa !38
  %85 = getelementptr inbounds i16, ptr %84, i64 5
  store i16 %83, ptr %85, align 2, !tbaa !42
  %86 = load ptr, ptr %6, align 8, !tbaa !39
  %87 = getelementptr inbounds i8, ptr %86, i64 6
  %88 = load i8, ptr %87, align 1, !tbaa !41
  %89 = zext i8 %88 to i32
  %90 = load ptr, ptr %7, align 8, !tbaa !39
  %91 = getelementptr inbounds i8, ptr %90, i64 6
  %92 = load i8, ptr %91, align 1, !tbaa !41
  %93 = zext i8 %92 to i32
  %94 = sub nsw i32 %89, %93
  %95 = trunc i32 %94 to i16
  %96 = load ptr, ptr %5, align 8, !tbaa !38
  %97 = getelementptr inbounds i16, ptr %96, i64 6
  store i16 %95, ptr %97, align 2, !tbaa !42
  %98 = load ptr, ptr %6, align 8, !tbaa !39
  %99 = getelementptr inbounds i8, ptr %98, i64 7
  %100 = load i8, ptr %99, align 1, !tbaa !41
  %101 = zext i8 %100 to i32
  %102 = load ptr, ptr %7, align 8, !tbaa !39
  %103 = getelementptr inbounds i8, ptr %102, i64 7
  %104 = load i8, ptr %103, align 1, !tbaa !41
  %105 = zext i8 %104 to i32
  %106 = sub nsw i32 %101, %105
  %107 = trunc i32 %106 to i16
  %108 = load ptr, ptr %5, align 8, !tbaa !38
  %109 = getelementptr inbounds i16, ptr %108, i64 7
  store i16 %107, ptr %109, align 2, !tbaa !42
  %110 = load i64, ptr %8, align 8, !tbaa !40
  %111 = load ptr, ptr %6, align 8, !tbaa !39
  %112 = getelementptr inbounds i8, ptr %111, i64 %110
  store ptr %112, ptr %6, align 8, !tbaa !39
  %113 = load i64, ptr %8, align 8, !tbaa !40
  %114 = load ptr, ptr %7, align 8, !tbaa !39
  %115 = getelementptr inbounds i8, ptr %114, i64 %113
  store ptr %115, ptr %7, align 8, !tbaa !39
  %116 = load ptr, ptr %5, align 8, !tbaa !38
  %117 = getelementptr inbounds i16, ptr %116, i64 8
  store ptr %117, ptr %5, align 8, !tbaa !38
  br label %118

118:                                              ; preds = %13
  %119 = load i32, ptr %9, align 4, !tbaa !31
  %120 = add nsw i32 %119, 1
  store i32 %120, ptr %9, align 4, !tbaa !31
  br label %10, !llvm.loop !44

121:                                              ; preds = %10
  call void @llvm.lifetime.end.p0(i64 4, ptr %9) #3
  ret void
}