; Function Attrs: nofree norecurse nosync nounwind memory(argmem: readwrite) uwtable
define internal void @diff_pixels_c(ptr noalias noundef writeonly captures(none) %0, ptr noundef readonly captures(none) %1, ptr noundef readonly captures(none) %2, i64 noundef %3) #1 {
  br label %5

5:                                                ; preds = %4, %5
  %.036 = phi i32 [ 0, %4 ], [ %70, %5 ]
  %.03035 = phi ptr [ %0, %4 ], [ %69, %5 ]
  %.03134 = phi ptr [ %2, %4 ], [ %68, %5 ]
  %.03233 = phi ptr [ %1, %4 ], [ %67, %5 ]
  %6 = load i8, ptr %.03233, align 1, !tbaa !33
  %7 = zext i8 %6 to i16
  %8 = load i8, ptr %.03134, align 1, !tbaa !33
  %9 = zext i8 %8 to i16
  %10 = sub nsw i16 %7, %9
  store i16 %10, ptr %.03035, align 2, !tbaa !34
  %11 = getelementptr inbounds nuw i8, ptr %.03233, i64 1
  %12 = load i8, ptr %11, align 1, !tbaa !33
  %13 = zext i8 %12 to i16
  %14 = getelementptr inbounds nuw i8, ptr %.03134, i64 1
  %15 = load i8, ptr %14, align 1, !tbaa !33
  %16 = zext i8 %15 to i16
  %17 = sub nsw i16 %13, %16
  %18 = getelementptr inbounds nuw i8, ptr %.03035, i64 2
  store i16 %17, ptr %18, align 2, !tbaa !34
  %19 = getelementptr inbounds nuw i8, ptr %.03233, i64 2
  %20 = load i8, ptr %19, align 1, !tbaa !33
  %21 = zext i8 %20 to i16
  %22 = getelementptr inbounds nuw i8, ptr %.03134, i64 2
  %23 = load i8, ptr %22, align 1, !tbaa !33
  %24 = zext i8 %23 to i16
  %25 = sub nsw i16 %21, %24
  %26 = getelementptr inbounds nuw i8, ptr %.03035, i64 4
  store i16 %25, ptr %26, align 2, !tbaa !34
  %27 = getelementptr inbounds nuw i8, ptr %.03233, i64 3
  %28 = load i8, ptr %27, align 1, !tbaa !33
  %29 = zext i8 %28 to i16
  %30 = getelementptr inbounds nuw i8, ptr %.03134, i64 3
  %31 = load i8, ptr %30, align 1, !tbaa !33
  %32 = zext i8 %31 to i16
  %33 = sub nsw i16 %29, %32
  %34 = getelementptr inbounds nuw i8, ptr %.03035, i64 6
  store i16 %33, ptr %34, align 2, !tbaa !34
  %35 = getelementptr inbounds nuw i8, ptr %.03233, i64 4
  %36 = load i8, ptr %35, align 1, !tbaa !33
  %37 = zext i8 %36 to i16
  %38 = getelementptr inbounds nuw i8, ptr %.03134, i64 4
  %39 = load i8, ptr %38, align 1, !tbaa !33
  %40 = zext i8 %39 to i16
  %41 = sub nsw i16 %37, %40
  %42 = getelementptr inbounds nuw i8, ptr %.03035, i64 8
  store i16 %41, ptr %42, align 2, !tbaa !34
  %43 = getelementptr inbounds nuw i8, ptr %.03233, i64 5
  %44 = load i8, ptr %43, align 1, !tbaa !33
  %45 = zext i8 %44 to i16
  %46 = getelementptr inbounds nuw i8, ptr %.03134, i64 5
  %47 = load i8, ptr %46, align 1, !tbaa !33
  %48 = zext i8 %47 to i16
  %49 = sub nsw i16 %45, %48
  %50 = getelementptr inbounds nuw i8, ptr %.03035, i64 10
  store i16 %49, ptr %50, align 2, !tbaa !34
  %51 = getelementptr inbounds nuw i8, ptr %.03233, i64 6
  %52 = load i8, ptr %51, align 1, !tbaa !33
  %53 = zext i8 %52 to i16
  %54 = getelementptr inbounds nuw i8, ptr %.03134, i64 6
  %55 = load i8, ptr %54, align 1, !tbaa !33
  %56 = zext i8 %55 to i16
  %57 = sub nsw i16 %53, %56
  %58 = getelementptr inbounds nuw i8, ptr %.03035, i64 12
  store i16 %57, ptr %58, align 2, !tbaa !34
  %59 = getelementptr inbounds nuw i8, ptr %.03233, i64 7
  %60 = load i8, ptr %59, align 1, !tbaa !33
  %61 = zext i8 %60 to i16
  %62 = getelementptr inbounds nuw i8, ptr %.03134, i64 7
  %63 = load i8, ptr %62, align 1, !tbaa !33
  %64 = zext i8 %63 to i16
  %65 = sub nsw i16 %61, %64
  %66 = getelementptr inbounds nuw i8, ptr %.03035, i64 14
  store i16 %65, ptr %66, align 2, !tbaa !34
  %67 = getelementptr inbounds i8, ptr %.03233, i64 %3
  %68 = getelementptr inbounds i8, ptr %.03134, i64 %3
  %69 = getelementptr inbounds nuw i8, ptr %.03035, i64 16
  %70 = add nuw nsw i32 %.036, 1
  %exitcond.not = icmp eq i32 %70, 8
  br i1 %exitcond.not, label %71, label %5, !llvm.loop !36

71:                                               ; preds = %5
  ret void
}